; ModuleID = 'source-C-CXX/9/1940.c'
source_filename = "source-C-CXX/9/1940.c"
target datalayout = "e-m:e-p270:32:32-p271:32:32-p272:64:64-i64:64-f80:128-n8:16:32:64-S128"
target triple = "x86_64-pc-linux-gnu"

%struct._IO_FILE = type { i32, i8*, i8*, i8*, i8*, i8*, i8*, i8*, i8*, i8*, i8*, i8*, %struct._IO_marker*, %struct._IO_FILE*, i32, i32, i64, i16, i8, [1 x i8], i8*, i64, %struct._IO_codecvt*, %struct._IO_wide_data*, %struct._IO_FILE*, i8*, i64, i32, [20 x i8] }
%struct._IO_marker = type opaque
%struct._IO_codecvt = type opaque
%struct._IO_wide_data = type opaque

@.str = private unnamed_addr constant [3 x i8] c"%d\00", align 1
@stdin = external local_unnamed_addr global %struct._IO_FILE*, align 8

; Function Attrs: mustprogress nofree norecurse nosync nounwind readonly sspstrong uwtable willreturn
define dso_local i32 @com(i8* nocapture readonly %0, i8* nocapture readonly %1) #0 {
  %3 = bitcast i8* %0 to i32*
  %4 = load i32, i32* %3, align 4, !tbaa !5
  %5 = bitcast i8* %1 to i32*
  %6 = load i32, i32* %5, align 4, !tbaa !5
  %7 = sub nsw i32 %4, %6
  ret i32 %7
}

; Function Attrs: nounwind sspstrong uwtable
define dso_local i32 @main() local_unnamed_addr #1 {
  %1 = alloca i32, align 4
  %2 = alloca [30 x i32], align 16
  %3 = alloca [30 x i32], align 16
  %4 = bitcast i32* %1 to i8*
  call void @llvm.lifetime.start.p0i8(i64 4, i8* nonnull %4) #6
  %5 = bitcast [30 x i32]* %2 to i8*
  call void @llvm.lifetime.start.p0i8(i64 120, i8* nonnull %5) #6
  %6 = bitcast [30 x i32]* %3 to i8*
  call void @llvm.lifetime.start.p0i8(i64 120, i8* nonnull %6) #6
  %7 = bitcast [30 x i32]* %3 to <4 x i32>*
  store <4 x i32> <i32 1, i32 1, i32 1, i32 1>, <4 x i32>* %7, align 16, !tbaa !5
  %8 = getelementptr inbounds [30 x i32], [30 x i32]* %3, i64 0, i64 4
  %9 = bitcast i32* %8 to <4 x i32>*
  store <4 x i32> <i32 1, i32 1, i32 1, i32 1>, <4 x i32>* %9, align 16, !tbaa !5
  %10 = getelementptr inbounds [30 x i32], [30 x i32]* %3, i64 0, i64 8
  %11 = bitcast i32* %10 to <4 x i32>*
  store <4 x i32> <i32 1, i32 1, i32 1, i32 1>, <4 x i32>* %11, align 16, !tbaa !5
  %12 = getelementptr inbounds [30 x i32], [30 x i32]* %3, i64 0, i64 12
  %13 = bitcast i32* %12 to <4 x i32>*
  store <4 x i32> <i32 1, i32 1, i32 1, i32 1>, <4 x i32>* %13, align 16, !tbaa !5
  %14 = getelementptr inbounds [30 x i32], [30 x i32]* %3, i64 0, i64 16
  %15 = bitcast i32* %14 to <4 x i32>*
  store <4 x i32> <i32 1, i32 1, i32 1, i32 1>, <4 x i32>* %15, align 16, !tbaa !5
  %16 = getelementptr inbounds [30 x i32], [30 x i32]* %3, i64 0, i64 20
  %17 = bitcast i32* %16 to <4 x i32>*
  store <4 x i32> <i32 1, i32 1, i32 1, i32 1>, <4 x i32>* %17, align 16, !tbaa !5
  %18 = getelementptr inbounds [30 x i32], [30 x i32]* %3, i64 0, i64 24
  %19 = bitcast i32* %18 to <4 x i32>*
  store <4 x i32> <i32 1, i32 1, i32 1, i32 1>, <4 x i32>* %19, align 16, !tbaa !5
  %20 = getelementptr inbounds [30 x i32], [30 x i32]* %3, i64 0, i64 28
  store i32 1, i32* %20, align 16, !tbaa !5
  %21 = getelementptr inbounds [30 x i32], [30 x i32]* %3, i64 0, i64 29
  store i32 1, i32* %21, align 4, !tbaa !5
  %22 = call i32 (i8*, ...) @__isoc99_scanf(i8* getelementptr inbounds ([3 x i8], [3 x i8]* @.str, i64 0, i64 0), i32* nonnull %1)
  %23 = load i32, i32* %1, align 4, !tbaa !5
  %24 = icmp sgt i32 %23, 0
  br i1 %24, label %30, label %38

25:                                               ; preds = %30
  %26 = icmp sgt i32 %35, 1
  br i1 %26, label %27, label %38

27:                                               ; preds = %25
  %28 = add nsw i32 %35, -2
  %29 = zext i32 %28 to i64
  br label %45

30:                                               ; preds = %0, %30
  %31 = phi i64 [ %34, %30 ], [ 0, %0 ]
  %32 = getelementptr inbounds [30 x i32], [30 x i32]* %2, i64 0, i64 %31
  %33 = call i32 (i8*, ...) @__isoc99_scanf(i8* getelementptr inbounds ([3 x i8], [3 x i8]* @.str, i64 0, i64 0), i32* nonnull %32)
  %34 = add nuw nsw i64 %31, 1
  %35 = load i32, i32* %1, align 4, !tbaa !5
  %36 = sext i32 %35 to i64
  %37 = icmp slt i64 %34, %36
  br i1 %37, label %30, label %25, !llvm.loop !9

38:                                               ; preds = %53, %0, %25
  call void @qsort(i8* nonnull %6, i64 30, i64 4, i32 (i8*, i8*)* nonnull @com) #6
  %39 = load i32, i32* %21, align 4, !tbaa !5
  %40 = call i32 (i8*, ...) @printf(i8* nonnull dereferenceable(1) getelementptr inbounds ([3 x i8], [3 x i8]* @.str, i64 0, i64 0), i32 %39)
  %41 = load %struct._IO_FILE*, %struct._IO_FILE** @stdin, align 8, !tbaa !11
  %42 = call i32 @getc(%struct._IO_FILE* %41) #6
  %43 = load %struct._IO_FILE*, %struct._IO_FILE** @stdin, align 8, !tbaa !11
  %44 = call i32 @getc(%struct._IO_FILE* %43) #6
  call void @llvm.lifetime.end.p0i8(i64 120, i8* nonnull %6) #6
  call void @llvm.lifetime.end.p0i8(i64 120, i8* nonnull %5) #6
  call void @llvm.lifetime.end.p0i8(i64 4, i8* nonnull %4) #6
  ret i32 0

45:                                               ; preds = %55, %27
  %46 = phi i32 [ %35, %27 ], [ %57, %55 ]
  %47 = phi i64 [ %29, %27 ], [ %56, %55 ]
  %48 = getelementptr inbounds [30 x i32], [30 x i32]* %2, i64 0, i64 %47
  %49 = getelementptr inbounds [30 x i32], [30 x i32]* %3, i64 0, i64 %47
  %50 = add i32 %46, -1
  %51 = sext i32 %50 to i64
  %52 = icmp slt i64 %47, %51
  br i1 %52, label %58, label %53

53:                                               ; preds = %70, %45
  %54 = icmp sgt i64 %47, 0
  br i1 %54, label %55, label %38, !llvm.loop !13

55:                                               ; preds = %53
  %56 = add nsw i64 %47, -1
  %57 = load i32, i32* %1, align 4, !tbaa !5
  br label %45

58:                                               ; preds = %45, %70
  %59 = phi i64 [ %71, %70 ], [ %51, %45 ]
  %60 = load i32, i32* %48, align 4, !tbaa !5
  %61 = getelementptr inbounds [30 x i32], [30 x i32]* %2, i64 0, i64 %59
  %62 = load i32, i32* %61, align 4, !tbaa !5
  %63 = icmp slt i32 %60, %62
  br i1 %63, label %70, label %64

64:                                               ; preds = %58
  %65 = getelementptr inbounds [30 x i32], [30 x i32]* %3, i64 0, i64 %59
  %66 = load i32, i32* %65, align 4, !tbaa !5
  %67 = add nsw i32 %66, 1
  %68 = load i32, i32* %49, align 4, !tbaa !5
  %69 = call i32 (i32, i32, ...) bitcast (i32 (...)* @max to i32 (i32, i32, ...)*)(i32 %67, i32 %68) #6
  store i32 %69, i32* %49, align 4, !tbaa !5
  br label %70

70:                                               ; preds = %58, %64
  %71 = add nsw i64 %59, -1
  %72 = icmp sgt i64 %71, %47
  br i1 %72, label %58, label %53, !llvm.loop !14
}

; Function Attrs: argmemonly mustprogress nofree nosync nounwind willreturn
declare void @llvm.lifetime.start.p0i8(i64 immarg, i8* nocapture) #2

; Function Attrs: argmemonly mustprogress nofree nosync nounwind willreturn
declare void @llvm.lifetime.end.p0i8(i64 immarg, i8* nocapture) #2

; Function Attrs: nofree nounwind
declare noundef i32 @__isoc99_scanf(i8* nocapture noundef readonly, ...) local_unnamed_addr #3

declare i32 @max(...) local_unnamed_addr #4

; Function Attrs: nofree
declare void @qsort(i8* noundef, i64 noundef, i64 noundef, i32 (i8*, i8*)* nocapture noundef) local_unnamed_addr #5

; Function Attrs: nofree nounwind
declare noundef i32 @printf(i8* nocapture noundef readonly, ...) local_unnamed_addr #3

; Function Attrs: nofree nounwind
declare noundef i32 @getc(%struct._IO_FILE* nocapture noundef) local_unnamed_addr #3


!llvm.module.flags = !{!0, !1, !2, !3}
!llvm.ident = !{!4}

!0 = !{i32 1, !"wchar_size", i32 4}
!1 = !{i32 7, !"PIC Level", i32 2}
!2 = !{i32 7, !"PIE Level", i32 2}
!3 = !{i32 7, !"uwtable", i32 1}
!4 = !{!"clang version 13.0.0"}
!5 = !{!6, !6, i64 0}
!6 = !{!"int", !7, i64 0}
!7 = !{!"omnipotent char", !8, i64 0}
!8 = !{!"Simple C/C++ TBAA"}
!9 = distinct !{!9, !10}
!10 = !{!"llvm.loop.mustprogress"}
!11 = !{!12, !12, i64 0}
!12 = !{!"any pointer", !7, i64 0}
!13 = distinct !{!13, !10}
!14 = distinct !{!14, !10}
